(lp0
F57.7
aF53.5
aF67.4
aF21.6
aF43.1
aF57.8
aF51.9
aF68.7
aF59.4
aF58.8
aF43.5
aF47.2
aF46.0
aF45.9
aF92.8
aF63.4
aF62.4
aF60.8
aF52.9
aF46.2
aF67.3
aF79.3
aF65.5
aF60.5
aF54.8
aF51.6
aF47.5
aF58.1
aF34.0
aF45.7
aF57.3
aF60.6
aF54.4
aF56.6
aF58.0
aF54.2
aF59.7
aF43.9
aF69.7
aF61.6
aF55.7
aF47.0
aF61.2
aF53.0
aF66.8
aF52.3
aF53.7
aF54.5
aF48.5
aF46.9
aF57.2
aF63.9
aF21.6
aF49.3
aF72.6
aF56.0
aF57.6
aF51.6
aF57.8
aF86.4
aF63.5
aF64.6
aF64.2
aF65.9
aF41.9
aF67.6
aF64.0
aF63.4
aF59.9
aF48.7
aF60.5
aF73.3
aF33.4
aF43.0
aF61.5
aF63.3
aF56.2
aF66.9
aF57.3
aF33.6
aF66.1
aF50.8
aF56.6
aF63.5
aF49.2
aF52.3
aF64.8
aF52.1
aF48.2
aF59.0
aF55.0
aF56.3
aF56.1
aF48.4
aF59.6
aF52.2
aF66.7
aF46.4
aF63.7
aF67.9
aF47.9
aF48.4
aF46.1
aF80.0
aF56.9
aF36.5
aF61.2
aF44.4
aF54.5
aF64.9
aF67.6
aF57.8
aF64.7
aF65.5
aF57.8
aF64.8
aF43.8
aF55.0
aF54.0
aF50.8
aF49.5
aF44.1
aF59.3
aF48.0
aF52.7
aF54.6
aF61.4
aF68.4
aF50.9
aF60.5
aF51.7
aF76.4
aF51.4
aF43.7
aF50.3
aF62.8
aF75.3
aF75.8
aF73.3
aF54.2
aF71.5
aF58.8
aF66.7
aF58.1
aF52.0
aF55.8
aF77.5
aF47.1
aF63.8
aF54.7
aF46.9
aF56.6
aF51.9
aF59.0
aF45.9
aF70.0
aF51.1
aF65.8
aF51.9
aF58.0
aF57.4
aF70.6
aF53.6
aF60.6
aF62.4
aF58.0
aF59.0
aF55.0
aF59.4
aF58.8
aF55.7
aF49.7
aF52.7
aF51.1
aF61.3
aF64.8
aF49.6
aF59.5
aF46.8
aF55.1
aF56.8
aF66.6
aF56.0
aF60.0
aF61.6
aF50.1
aF52.0
aF71.3
aF51.7
aF56.8
aF64.5
aF56.1
aF52.2
aF55.7
aF46.2
aF45.0
aF54.9
aF63.5
aF69.2
aF56.3
aF58.1
aF64.7
aF51.3
aF67.7
aF60.9
aF72.0
aF57.6
aF55.8
aF54.8
aF49.6
aF53.7
aF55.4
aF74.2
aF50.5
aF54.6
aF65.9
aF51.0
aF76.5
aF69.7
aF47.1
aF62.7
aF69.8
aF70.8
aF66.1
aF47.2
aF65.8
aF47.0
aF46.5
aF58.1
aF47.6
aF66.9
aF55.8
aF63.1
aF57.4
aF59.1
aF63.8
aF58.6
aF63.6
aF45.9
aF64.8
aF51.1
aF59.4
aF32.9
aF46.9
aF70.0
aF59.2
aF49.5
aF58.9
aF89.2
aF57.4
aF63.6
aF46.7
aF55.8
aF60.6
aF53.6
aF49.0
aF54.7
aF51.3
aF63.6
aF65.5
aF51.6
aF63.7
aF77.4
aF58.6
aF73.8
aF54.4
aF48.8
aF57.1
aF47.1
aF55.5
aF60.0
aF54.5
aF74.6
aF69.2
aF50.4
aF60.5
aF50.3
aF89.2
aF56.9
aF42.2
aF65.2
aF53.3
aF50.8
aF64.1
aF53.9
aF54.5
aF58.5
aF63.4
aF56.8
aF62.0
aF63.2
aF63.0
aF69.7
aF52.9
aF52.9
aF65.3
aF57.0
aF64.1
aF65.3
aF51.3
aF49.6
aF61.3
aF68.0
aF67.3
aF46.3
aF57.8
aF62.4
aF74.0
aF87.8
aF62.1
aF57.5
aF48.6
aF63.8
aF58.7
aF67.8
aF56.1
aF51.2
aF67.7
aF64.3
aF49.0
aF50.7
aF38.5
aF48.7
aF49.4
aF63.5
aF49.4
aF65.9
aF43.0
aF65.2
aF44.4
aF74.0
aF59.6
aF50.1
aF51.3
aF57.4
aF52.4
aF62.2
aF61.8
aF52.1
aF65.1
aF59.5
aF64.0
aF45.5
aF71.3
aF70.1
aF45.3
aF84.9
aF56.4
aF57.4
aF53.4
aF62.2
aF45.5
aF69.8
aF68.6
aF59.2
aF54.7
aF68.2
aF53.6
aF81.1
aF46.8
aF52.5
aF54.9
aF56.7
aF51.2
aF45.0
aF50.7
aF46.8
aF62.7
aF58.5
aF53.1
aF63.8
aF47.2
aF59.0
aF74.5
aF65.2
aF43.6
aF55.3
aF45.1
aF71.4
aF72.5
aF68.2
aF57.8
aF50.7
aF53.4
aF27.5
aF52.9
aF59.2
aF75.0
aF47.3
aF49.4
aF55.3
aF69.2
aF64.7
aF59.8
aF61.0
aF66.6
aF66.5
aF59.7
aF53.4
aF57.6
aF48.5
aF55.6
aF52.0
aF55.8
aF61.6
aF47.4
aF53.8
aF67.3
aF76.5
aF59.6
aF54.0
aF53.3
aF60.1
aF51.5
aF50.9
aF43.2
aF57.5
aF45.8
aF49.0
aF62.9
aF49.3
aF49.6
aF61.7
aF50.7
aF47.8
aF44.4
aF55.1
aF53.8
aF60.1
aF54.1
aF45.2
aF58.4
aF45.8
aF70.6
aF67.0
aF79.5
aF43.9
a.